target datalayout = "e-m:e-p270:32:32-p271:32:32-p272:64:64-i64:64-i128:128-f80:128-n8:16:32:64-S128"
target triple = "x86_64-pc-linux-gnu"

%struct.PgArchData = type { i32, %struct.pg_atomic_uint32 }
%struct.pg_atomic_uint32 = type { i32 }
%struct.PROC_HDR = type { ptr, ptr, ptr, ptr, i32, %struct.dlist_head, %struct.dlist_head, %struct.dlist_head, %struct.dlist_head, %struct.pg_atomic_uint32, %struct.pg_atomic_uint32, i32, i32, i32, i32 }
%struct.dlist_head = type { %struct.dlist_node }
%struct.dlist_node = type { ptr, ptr }
%struct.PGPROC = type { %struct.dlist_node, ptr, ptr, i32, %struct.Latch, i32, i32, i32, i32, %struct.anon, i32, i32, i32, i8, i8, i8, i8, %struct.proclist_node, %struct.proclist_node, ptr, ptr, i32, i32, %struct.pg_atomic_uint64, i32, i8, i64, i32, %struct.dlist_node, [16 x %struct.dlist_head], %struct.XidCacheStatus, %struct.XidCache, i8, %struct.pg_atomic_uint32, i32, i32, i8, %struct.pg_atomic_uint32, i32, i32, i64, i64, %struct.LWLock, ptr, ptr, i8, i32, ptr, %struct.dlist_head, %struct.dlist_node }
%struct.Latch = type { i32, i32, i8, i32 }
%struct.anon = type { i32, i32 }
%struct.proclist_node = type { i32, i32 }
%struct.pg_atomic_uint64 = type { i64 }
%struct.XidCacheStatus = type { i8, i8 }
%struct.XidCache = type { [64 x i32] }
%struct.LWLock = type { i16, %struct.pg_atomic_uint32, %struct.proclist_head }
%struct.proclist_head = type { i32, i32 }

@PgArch = internal global ptr null, align 8
@ProcGlobal = external global ptr, align 8

; Function Attrs: nounwind uwtable
define dso_local void @PgArchWakeup() #0 {
  %1 = alloca i32, align 4
  call void @llvm.lifetime.start.p0(i64 4, ptr %1) #14
  %2 = load ptr, ptr @PgArch, align 8
  %3 = getelementptr inbounds nuw %struct.PgArchData, ptr %2, i32 0, i32 0
  %4 = load i32, ptr %3, align 4
  store i32 %4, ptr %1, align 4
  %5 = load i32, ptr %1, align 4
  %6 = icmp ne i32 %5, -1
  br i1 %6, label %7, label %15

7:                                                ; preds = %0
  %8 = load ptr, ptr @ProcGlobal, align 8
  %9 = getelementptr inbounds nuw %struct.PROC_HDR, ptr %8, i32 0, i32 0
  %10 = load ptr, ptr %9, align 8
  %11 = load i32, ptr %1, align 4
  %12 = sext i32 %11 to i64
  %13 = getelementptr inbounds %struct.PGPROC, ptr %10, i64 %12
  %14 = getelementptr inbounds nuw %struct.PGPROC, ptr %13, i32 0, i32 4
  call void @SetLatch(ptr noundef %14)
  br label %15

15:                                               ; preds = %7, %0
  call void @llvm.lifetime.end.p0(i64 4, ptr %1) #14
  ret void
}